target datalayout = "e-m:e-p270:32:32-p271:32:32-p272:64:64-i64:64-i128:128-f80:128-n8:16:32:64-S128"
target triple = "x86_64-pc-linux-gnu"

%struct.strbuf = type { i64, i64, ptr }
%struct.stash_info = type { %struct.object_id, %struct.object_id, %struct.object_id, %struct.object_id, %struct.object_id, %struct.object_id, %struct.object_id, %struct.object_id, %struct.strbuf, i32, i32 }
%struct.object_id = type { [32 x i8], i32 }

@.str.26 = private unnamed_addr constant [5 x i8] c"%s^1\00", align 1
@.str.27 = private unnamed_addr constant [4 x i8] c"%s:\00", align 1
@.str.28 = private unnamed_addr constant [6 x i8] c"%s^1:\00", align 1
@.str.29 = private unnamed_addr constant [6 x i8] c"%s^2:\00", align 1
@.str.30 = private unnamed_addr constant [32 x i8] c"'%s' is not a stash-like commit\00", align 1

; Function Attrs: nounwind uwtable
define internal void @assert_stash_like(ptr noundef %0, ptr noundef %1) #0 {
  %3 = alloca ptr, align 8
  %4 = alloca ptr, align 8
  store ptr %0, ptr %3, align 8, !tbaa !109
  store ptr %1, ptr %4, align 8, !tbaa !11
  %5 = load ptr, ptr %3, align 8, !tbaa !109
  %6 = getelementptr inbounds nuw %struct.stash_info, ptr %5, i32 0, i32 1
  %7 = load ptr, ptr %4, align 8, !tbaa !11
  %8 = call i32 (ptr, ptr, ...) @get_oidf(ptr noundef %6, ptr noundef @.str.26, ptr noundef %7)
  %9 = icmp ne i32 %8, 0
  br i1 %9, label %28, label %10

10:                                               ; preds = %2
  %11 = load ptr, ptr %3, align 8, !tbaa !109
  %12 = getelementptr inbounds nuw %struct.stash_info, ptr %11, i32 0, i32 4
  %13 = load ptr, ptr %4, align 8, !tbaa !11
  %14 = call i32 (ptr, ptr, ...) @get_oidf(ptr noundef %12, ptr noundef @.str.27, ptr noundef %13)
  %15 = icmp ne i32 %14, 0
  br i1 %15, label %28, label %16

16:                                               ; preds = %10
  %17 = load ptr, ptr %3, align 8, !tbaa !109
  %18 = getelementptr inbounds nuw %struct.stash_info, ptr %17, i32 0, i32 5
  %19 = load ptr, ptr %4, align 8, !tbaa !11
  %20 = call i32 (ptr, ptr, ...) @get_oidf(ptr noundef %18, ptr noundef @.str.28, ptr noundef %19)
  %21 = icmp ne i32 %20, 0
  br i1 %21, label %28, label %22

22:                                               ; preds = %16
  %23 = load ptr, ptr %3, align 8, !tbaa !109
  %24 = getelementptr inbounds nuw %struct.stash_info, ptr %23, i32 0, i32 6
  %25 = load ptr, ptr %4, align 8, !tbaa !11
  %26 = call i32 (ptr, ptr, ...) @get_oidf(ptr noundef %24, ptr noundef @.str.29, ptr noundef %25)
  %27 = icmp ne i32 %26, 0
  br i1 %27, label %28, label %31

28:                                               ; preds = %22, %16, %10, %2
  %29 = call ptr @_(ptr noundef @.str.30)
  %30 = load ptr, ptr %4, align 8, !tbaa !11
  call void (ptr, ...) @die(ptr noundef %29, ptr noundef %30) #10
  unreachable

31:                                               ; preds = %22
  ret void
}