; Function Attrs: nounwind uwtable
define internal fastcc void @assert_stash_like(ptr noundef nonnull %0, ptr noundef %1) unnamed_addr #0 {
  %3 = getelementptr inbounds nuw i8, ptr %0, i64 36
  %4 = tail call i32 (ptr, ptr, ...) @get_oidf(ptr noundef nonnull %3, ptr noundef nonnull @.str.26, ptr noundef %1) #15
  %.not = icmp eq i32 %4, 0
  br i1 %.not, label %5, label %14

5:                                                ; preds = %2
  %6 = getelementptr inbounds nuw i8, ptr %0, i64 144
  %7 = tail call i32 (ptr, ptr, ...) @get_oidf(ptr noundef nonnull %6, ptr noundef nonnull @.str.27, ptr noundef %1) #15
  %.not9 = icmp eq i32 %7, 0
  br i1 %.not9, label %8, label %14

8:                                                ; preds = %5
  %9 = getelementptr inbounds nuw i8, ptr %0, i64 180
  %10 = tail call i32 (ptr, ptr, ...) @get_oidf(ptr noundef nonnull %9, ptr noundef nonnull @.str.28, ptr noundef %1) #15
  %.not10 = icmp eq i32 %10, 0
  br i1 %.not10, label %11, label %14

11:                                               ; preds = %8
  %12 = getelementptr inbounds nuw i8, ptr %0, i64 216
  %13 = tail call i32 (ptr, ptr, ...) @get_oidf(ptr noundef nonnull %12, ptr noundef nonnull @.str.29, ptr noundef %1) #15
  %.not11 = icmp eq i32 %13, 0
  br i1 %.not11, label %16, label %14

14:                                               ; preds = %11, %8, %5, %2
  %15 = tail call fastcc ptr @_(ptr noundef nonnull @.str.30)
  tail call void (ptr, ...) @die(ptr noundef %15, ptr noundef %1) #16
  unreachable

16:                                               ; preds = %11
  ret void
}